target datalayout = "e-m:e-p270:32:32-p271:32:32-p272:64:64-i64:64-i128:128-f80:128-n8:16:32:64-S128"
target triple = "x86_64-pc-linux-gnu"

%struct.SparseMatrix_struct = type { i32, i32, i32, i32, i32, ptr, ptr, ptr, i32, i8, i64 }

; Function Attrs: nounwind uwtable
define ptr @SparseMatrix_general_new(i32 noundef %0, i32 noundef %1, i32 noundef %2, i32 noundef %3, i64 noundef %4, i32 noundef %5) #0 {
  %7 = alloca i32, align 4
  %8 = alloca i32, align 4
  %9 = alloca i32, align 4
  %10 = alloca i32, align 4
  %11 = alloca i64, align 8
  %12 = alloca i32, align 4
  %13 = alloca ptr, align 8
  store i32 %0, ptr %7, align 4, !tbaa !17
  store i32 %1, ptr %8, align 4, !tbaa !17
  store i32 %2, ptr %9, align 4, !tbaa !17
  store i32 %3, ptr %10, align 4, !tbaa !17
  store i64 %4, ptr %11, align 8, !tbaa !52
  store i32 %5, ptr %12, align 4, !tbaa !17
  call void @llvm.lifetime.start.p0(i64 8, ptr %13) #11
  %14 = load i32, ptr %7, align 4, !tbaa !17
  %15 = load i32, ptr %8, align 4, !tbaa !17
  %16 = load i32, ptr %10, align 4, !tbaa !17
  %17 = load i64, ptr %11, align 8, !tbaa !52
  %18 = load i32, ptr %12, align 4, !tbaa !17
  %19 = call ptr @SparseMatrix_init(i32 noundef %14, i32 noundef %15, i32 noundef %16, i64 noundef %17, i32 noundef %18)
  store ptr %19, ptr %13, align 8, !tbaa !3
  %20 = load i32, ptr %9, align 4, !tbaa !17
  %21 = icmp sgt i32 %20, 0
  br i1 %21, label %22, label %26

22:                                               ; preds = %6
  %23 = load ptr, ptr %13, align 8, !tbaa !3
  %24 = load i32, ptr %9, align 4, !tbaa !17
  %25 = call ptr @SparseMatrix_alloc(ptr noundef %23, i32 noundef %24)
  store ptr %25, ptr %13, align 8, !tbaa !3
  br label %26

26:                                               ; preds = %22, %6
  %27 = load ptr, ptr %13, align 8, !tbaa !3
  call void @llvm.lifetime.end.p0(i64 8, ptr %13) #11
  ret ptr %27
}

; Function Attrs: nounwind uwtable
define ptr @SparseMatrix_copy(ptr noundef %0) #0 {
  %2 = alloca ptr, align 8
  %3 = alloca ptr, align 8
  %4 = alloca ptr, align 8
  %5 = alloca i32, align 4
  store ptr %0, ptr %3, align 8, !tbaa !3
  call void @llvm.lifetime.start.p0(i64 8, ptr %4) #11
  %6 = load ptr, ptr %3, align 8, !tbaa !3
  %7 = icmp ne ptr %6, null
  br i1 %7, label %10, label %8

8:                                                ; preds = %1
  %9 = load ptr, ptr %3, align 8, !tbaa !3
  store ptr %9, ptr %2, align 8
  store i32 1, ptr %5, align 4
  br label %134

10:                                               ; preds = %1
  %11 = load ptr, ptr %3, align 8, !tbaa !3
  %12 = getelementptr inbounds nuw %struct.SparseMatrix_struct, ptr %11, i32 0, i32 0
  %13 = load i32, ptr %12, align 8, !tbaa !18
  %14 = load ptr, ptr %3, align 8, !tbaa !3
  %15 = getelementptr inbounds nuw %struct.SparseMatrix_struct, ptr %14, i32 0, i32 1
  %16 = load i32, ptr %15, align 4, !tbaa !19
  %17 = load ptr, ptr %3, align 8, !tbaa !3
  %18 = getelementptr inbounds nuw %struct.SparseMatrix_struct, ptr %17, i32 0, i32 2
  %19 = load i32, ptr %18, align 8, !tbaa !16
  %20 = load ptr, ptr %3, align 8, !tbaa !3
  %21 = getelementptr inbounds nuw %struct.SparseMatrix_struct, ptr %20, i32 0, i32 4
  %22 = load i32, ptr %21, align 8, !tbaa !20
  %23 = load ptr, ptr %3, align 8, !tbaa !3
  %24 = getelementptr inbounds nuw %struct.SparseMatrix_struct, ptr %23, i32 0, i32 10
  %25 = load i64, ptr %24, align 8, !tbaa !71
  %26 = load ptr, ptr %3, align 8, !tbaa !3
  %27 = getelementptr inbounds nuw %struct.SparseMatrix_struct, ptr %26, i32 0, i32 8
  %28 = load i32, ptr %27, align 8, !tbaa !21
  %29 = call ptr @SparseMatrix_general_new(i32 noundef %13, i32 noundef %16, i32 noundef %19, i32 noundef %22, i64 noundef %25, i32 noundef %28)
  store ptr %29, ptr %4, align 8, !tbaa !3
  %30 = load ptr, ptr %4, align 8, !tbaa !3
  %31 = getelementptr inbounds nuw %struct.SparseMatrix_struct, ptr %30, i32 0, i32 5
  %32 = load ptr, ptr %31, align 8, !tbaa !8
  %33 = load ptr, ptr %3, align 8, !tbaa !3
  %34 = getelementptr inbounds nuw %struct.SparseMatrix_struct, ptr %33, i32 0, i32 5
  %35 = load ptr, ptr %34, align 8, !tbaa !8
  %36 = load ptr, ptr %3, align 8, !tbaa !3
  %37 = getelementptr inbounds nuw %struct.SparseMatrix_struct, ptr %36, i32 0, i32 0
  %38 = load i32, ptr %37, align 8, !tbaa !18
  %39 = add nsw i32 %38, 1
  %40 = sext i32 %39 to i64
  %41 = mul i64 4, %40
  call void @llvm.memcpy.p0.p0.i64(ptr align 4 %32, ptr align 4 %35, i64 %41, i1 false)
  %42 = load ptr, ptr %3, align 8, !tbaa !3
  %43 = getelementptr inbounds nuw %struct.SparseMatrix_struct, ptr %42, i32 0, i32 5
  %44 = load ptr, ptr %43, align 8, !tbaa !8
  %45 = load ptr, ptr %3, align 8, !tbaa !3
  %46 = getelementptr inbounds nuw %struct.SparseMatrix_struct, ptr %45, i32 0, i32 0
  %47 = load i32, ptr %46, align 8, !tbaa !18
  %48 = sext i32 %47 to i64
  %49 = getelementptr inbounds i32, ptr %44, i64 %48
  %50 = load i32, ptr %49, align 4, !tbaa !17
  %51 = icmp ne i32 %50, 0
  br i1 %51, label %52, label %70

52:                                               ; preds = %10
  %53 = load ptr, ptr %4, align 8, !tbaa !3
  %54 = getelementptr inbounds nuw %struct.SparseMatrix_struct, ptr %53, i32 0, i32 6
  %55 = load ptr, ptr %54, align 8, !tbaa !15
  %56 = load ptr, ptr %3, align 8, !tbaa !3
  %57 = getelementptr inbounds nuw %struct.SparseMatrix_struct, ptr %56, i32 0, i32 6
  %58 = load ptr, ptr %57, align 8, !tbaa !15
  %59 = load ptr, ptr %3, align 8, !tbaa !3
  %60 = getelementptr inbounds nuw %struct.SparseMatrix_struct, ptr %59, i32 0, i32 5
  %61 = load ptr, ptr %60, align 8, !tbaa !8
  %62 = load ptr, ptr %3, align 8, !tbaa !3
  %63 = getelementptr inbounds nuw %struct.SparseMatrix_struct, ptr %62, i32 0, i32 0
  %64 = load i32, ptr %63, align 8, !tbaa !18
  %65 = sext i32 %64 to i64
  %66 = getelementptr inbounds i32, ptr %61, i64 %65
  %67 = load i32, ptr %66, align 4, !tbaa !17
  %68 = sext i32 %67 to i64
  %69 = mul i64 4, %68
  call void @llvm.memcpy.p0.p0.i64(ptr align 4 %55, ptr align 4 %58, i64 %69, i1 false)
  br label %70

70:                                               ; preds = %52, %10
  %71 = load ptr, ptr %3, align 8, !tbaa !3
  %72 = getelementptr inbounds nuw %struct.SparseMatrix_struct, ptr %71, i32 0, i32 7
  %73 = load ptr, ptr %72, align 8, !tbaa !27
  %74 = icmp ne ptr %73, null
  br i1 %74, label %75, label %90

75:                                               ; preds = %70
  %76 = load ptr, ptr %4, align 8, !tbaa !3
  %77 = getelementptr inbounds nuw %struct.SparseMatrix_struct, ptr %76, i32 0, i32 7
  %78 = load ptr, ptr %77, align 8, !tbaa !27
  %79 = load ptr, ptr %3, align 8, !tbaa !3
  %80 = getelementptr inbounds nuw %struct.SparseMatrix_struct, ptr %79, i32 0, i32 7
  %81 = load ptr, ptr %80, align 8, !tbaa !27
  %82 = load ptr, ptr %3, align 8, !tbaa !3
  %83 = getelementptr inbounds nuw %struct.SparseMatrix_struct, ptr %82, i32 0, i32 10
  %84 = load i64, ptr %83, align 8, !tbaa !71
  %85 = load ptr, ptr %3, align 8, !tbaa !3
  %86 = getelementptr inbounds nuw %struct.SparseMatrix_struct, ptr %85, i32 0, i32 2
  %87 = load i32, ptr %86, align 8, !tbaa !16
  %88 = sext i32 %87 to i64
  %89 = mul i64 %84, %88
  call void @llvm.memcpy.p0.p0.i64(ptr align 1 %78, ptr align 1 %81, i64 %89, i1 false)
  br label %90

90:                                               ; preds = %75, %70
  %91 = load ptr, ptr %3, align 8, !tbaa !3
  %92 = getelementptr inbounds nuw %struct.SparseMatrix_struct, ptr %91, i32 0, i32 9
  %93 = load i8, ptr %92, align 4
  %94 = and i8 %93, 1
  %95 = trunc i8 %94 to i1
  %96 = load ptr, ptr %4, align 8, !tbaa !3
  %97 = getelementptr inbounds nuw %struct.SparseMatrix_struct, ptr %96, i32 0, i32 9
  %98 = zext i1 %95 to i8
  %99 = load i8, ptr %97, align 4
  %100 = and i8 %99, -2
  %101 = or i8 %100, %98
  store i8 %101, ptr %97, align 4
  %102 = load ptr, ptr %3, align 8, !tbaa !3
  %103 = getelementptr inbounds nuw %struct.SparseMatrix_struct, ptr %102, i32 0, i32 9
  %104 = load i8, ptr %103, align 4
  %105 = lshr i8 %104, 1
  %106 = and i8 %105, 1
  %107 = trunc i8 %106 to i1
  %108 = load ptr, ptr %4, align 8, !tbaa !3
  %109 = getelementptr inbounds nuw %struct.SparseMatrix_struct, ptr %108, i32 0, i32 9
  %110 = zext i1 %107 to i8
  %111 = load i8, ptr %109, align 4
  %112 = shl i8 %110, 1
  %113 = and i8 %111, -3
  %114 = or i8 %113, %112
  store i8 %114, ptr %109, align 4
  %115 = load ptr, ptr %3, align 8, !tbaa !3
  %116 = getelementptr inbounds nuw %struct.SparseMatrix_struct, ptr %115, i32 0, i32 9
  %117 = load i8, ptr %116, align 4
  %118 = lshr i8 %117, 2
  %119 = and i8 %118, 1
  %120 = trunc i8 %119 to i1
  %121 = load ptr, ptr %4, align 8, !tbaa !3
  %122 = getelementptr inbounds nuw %struct.SparseMatrix_struct, ptr %121, i32 0, i32 9
  %123 = zext i1 %120 to i8
  %124 = load i8, ptr %122, align 4
  %125 = shl i8 %123, 2
  %126 = and i8 %124, -5
  %127 = or i8 %126, %125
  store i8 %127, ptr %122, align 4
  %128 = load ptr, ptr %3, align 8, !tbaa !3
  %129 = getelementptr inbounds nuw %struct.SparseMatrix_struct, ptr %128, i32 0, i32 2
  %130 = load i32, ptr %129, align 8, !tbaa !16
  %131 = load ptr, ptr %4, align 8, !tbaa !3
  %132 = getelementptr inbounds nuw %struct.SparseMatrix_struct, ptr %131, i32 0, i32 2
  store i32 %130, ptr %132, align 8, !tbaa !16
  %133 = load ptr, ptr %4, align 8, !tbaa !3
  store ptr %133, ptr %2, align 8
  store i32 1, ptr %5, align 4
  br label %134

134:                                              ; preds = %90, %8
  call void @llvm.lifetime.end.p0(i64 8, ptr %4) #11
  %135 = load ptr, ptr %2, align 8
  ret ptr %135
}