; Function Attrs: nofree nounwind uwtable
define noalias noundef ptr @SparseMatrix_copy(ptr noundef readonly captures(address_is_null) %0) local_unnamed_addr #4 {
  %.not = icmp eq ptr %0, null
  br i1 %.not, label %58, label %2

2:                                                ; preds = %1
  %3 = load i32, ptr %0, align 8, !tbaa !15
  %4 = getelementptr inbounds nuw i8, ptr %0, i64 4
  %5 = load i32, ptr %4, align 4, !tbaa !16
  %6 = getelementptr inbounds nuw i8, ptr %0, i64 8
  %7 = load i32, ptr %6, align 8, !tbaa !14
  %8 = getelementptr inbounds nuw i8, ptr %0, i64 16
  %9 = load i32, ptr %8, align 8, !tbaa !17
  %10 = getelementptr inbounds nuw i8, ptr %0, i64 56
  %11 = load i64, ptr %10, align 8, !tbaa !62
  %12 = getelementptr inbounds nuw i8, ptr %0, i64 48
  %13 = load i32, ptr %12, align 8, !tbaa !18
  %14 = tail call fastcc ptr @SparseMatrix_init(i32 noundef %3, i32 noundef %5, i32 noundef %9, i64 noundef %11, i32 noundef %13)
  %15 = icmp sgt i32 %7, 0
  br i1 %15, label %16, label %SparseMatrix_general_new.exit

16:                                               ; preds = %2
  %17 = tail call fastcc ptr @SparseMatrix_alloc(ptr noundef %14, i32 noundef %7)
  br label %SparseMatrix_general_new.exit

SparseMatrix_general_new.exit:                    ; preds = %2, %16
  %18 = getelementptr inbounds nuw i8, ptr %14, i64 24
  %19 = load ptr, ptr %18, align 8, !tbaa !3
  %20 = getelementptr inbounds nuw i8, ptr %0, i64 24
  %21 = load ptr, ptr %20, align 8, !tbaa !3
  %22 = load i32, ptr %0, align 8, !tbaa !15
  %23 = add nsw i32 %22, 1
  %24 = sext i32 %23 to i64
  %25 = shl nsw i64 %24, 2
  tail call void @llvm.memcpy.p0.p0.i64(ptr align 4 %19, ptr align 4 %21, i64 %25, i1 false)
  %26 = load ptr, ptr %20, align 8, !tbaa !3
  %27 = load i32, ptr %0, align 8, !tbaa !15
  %28 = sext i32 %27 to i64
  %29 = getelementptr inbounds i32, ptr %26, i64 %28
  %30 = load i32, ptr %29, align 4, !tbaa !19
  %.not35 = icmp eq i32 %30, 0
  br i1 %.not35, label %38, label %31

31:                                               ; preds = %SparseMatrix_general_new.exit
  %32 = getelementptr inbounds nuw i8, ptr %14, i64 32
  %33 = load ptr, ptr %32, align 8, !tbaa !12
  %34 = getelementptr inbounds nuw i8, ptr %0, i64 32
  %35 = load ptr, ptr %34, align 8, !tbaa !12
  %36 = sext i32 %30 to i64
  %37 = shl nsw i64 %36, 2
  tail call void @llvm.memcpy.p0.p0.i64(ptr align 4 %33, ptr align 4 %35, i64 %37, i1 false)
  br label %38

38:                                               ; preds = %31, %SparseMatrix_general_new.exit
  %39 = getelementptr inbounds nuw i8, ptr %0, i64 40
  %40 = load ptr, ptr %39, align 8, !tbaa !13
  %.not36 = icmp eq ptr %40, null
  br i1 %.not36, label %48, label %41

41:                                               ; preds = %38
  %42 = getelementptr inbounds nuw i8, ptr %14, i64 40
  %43 = load ptr, ptr %42, align 8, !tbaa !13
  %44 = load i64, ptr %10, align 8, !tbaa !62
  %45 = load i32, ptr %6, align 8, !tbaa !14
  %46 = sext i32 %45 to i64
  %47 = mul i64 %44, %46
  tail call void @llvm.memcpy.p0.p0.i64(ptr align 1 %43, ptr nonnull align 1 %40, i64 %47, i1 false)
  br label %48

48:                                               ; preds = %41, %38
  %49 = getelementptr inbounds nuw i8, ptr %0, i64 52
  %50 = load i8, ptr %49, align 4
  %51 = getelementptr inbounds nuw i8, ptr %14, i64 52
  %52 = load i8, ptr %51, align 4
  %53 = and i8 %52, -8
  %54 = and i8 %50, 7
  %55 = or disjoint i8 %53, %54
  store i8 %55, ptr %51, align 4
  %56 = load i32, ptr %6, align 8, !tbaa !14
  %57 = getelementptr inbounds nuw i8, ptr %14, i64 8
  store i32 %56, ptr %57, align 8, !tbaa !14
  br label %58

58:                                               ; preds = %1, %48
  %.0 = phi ptr [ %14, %48 ], [ null, %1 ]
  ret ptr %.0
}